target datalayout = "e-m:e-p270:32:32-p271:32:32-p272:64:64-i64:64-i128:128-f80:128-n8:16:32:64-S128"
target triple = "x86_64-pc-linux-gnu"

%struct.SnapBuild = type { i32, ptr, i32, i32, i64, i64, i32, i8, i8, ptr, i64, ptr, i32, %struct.anon, %struct.anon.0 }
%struct.anon = type { i64, i64, i8, ptr }
%struct.anon.0 = type { i64, ptr }
%struct.SnapBuildOnDisk = type { i32, i32, i32, i32, %struct.SnapBuild }

@.str.2 = private unnamed_addr constant [12 x i8] c"snapbuild.c\00", align 1
@.str.20 = private unnamed_addr constant [29 x i8] c"could not open file \22%s\22: %m\00", align 1
@__func__.SnapBuildRestoreSnapshot = private unnamed_addr constant [25 x i8] c"SnapBuildRestoreSnapshot\00", align 1
@.str.21 = private unnamed_addr constant [21 x i8] c"pg_logical/snapshots\00", align 1
@.str.22 = private unnamed_addr constant [67 x i8] c"snapbuild state file \22%s\22 has wrong magic number: %u instead of %u\00", align 1
@.str.23 = private unnamed_addr constant [68 x i8] c"snapbuild state file \22%s\22 has unsupported version: %u instead of %u\00", align 1
@pg_comp_crc32c = external global ptr, align 8
@.str.24 = private unnamed_addr constant [30 x i8] c"could not close file \22%s\22: %m\00", align 1
@.str.25 = private unnamed_addr constant [69 x i8] c"checksum mismatch for snapbuild state file \22%s\22: is %u, should be %u\00", align 1

; Function Attrs: nounwind uwtable
define dso_local zeroext i1 @SnapBuildRestoreSnapshot(ptr noundef %0, ptr noundef %1, ptr noundef %2, i1 noundef zeroext %3) #0 {
  %5 = alloca i1, align 1
  %6 = alloca ptr, align 8
  %7 = alloca ptr, align 8
  %8 = alloca ptr, align 8
  %9 = alloca i8, align 1
  %10 = alloca i32, align 4
  %11 = alloca i32, align 4
  %12 = alloca i64, align 8
  %13 = alloca i32, align 4
  store ptr %0, ptr %6, align 8
  store ptr %1, ptr %7, align 8
  store ptr %2, ptr %8, align 8
  %14 = zext i1 %3 to i8
  store i8 %14, ptr %9, align 1
  call void @llvm.lifetime.start.p0(i64 4, ptr %10) #9
  call void @llvm.lifetime.start.p0(i64 4, ptr %11) #9
  call void @llvm.lifetime.start.p0(i64 8, ptr %12) #9
  %15 = load ptr, ptr %7, align 8
  %16 = call i32 @OpenTransientFile(ptr noundef %15, i32 noundef 0)
  store i32 %16, ptr %10, align 4
  %17 = load i32, ptr %10, align 4
  %18 = icmp slt i32 %17, 0
  br i1 %18, label %19, label %40

19:                                               ; preds = %4
  %20 = load i8, ptr %9, align 1, !range !4, !noundef !5
  %21 = trunc i8 %20 to i1
  br i1 %21, label %22, label %27

22:                                               ; preds = %19
  %23 = call ptr @__errno_location() #11
  %24 = load i32, ptr %23, align 4
  %25 = icmp eq i32 %24, 2
  br i1 %25, label %26, label %27

26:                                               ; preds = %22
  store i1 false, ptr %5, align 1
  store i32 1, ptr %13, align 4
  br label %219

27:                                               ; preds = %22, %19
  br label %28

28:                                               ; preds = %27
  br i1 true, label %29, label %31

29:                                               ; preds = %28
  %30 = call zeroext i1 @errstart_cold(i32 noundef 21, ptr noundef null) #10
  br i1 %30, label %33, label %37

31:                                               ; preds = %28
  %32 = call zeroext i1 @errstart(i32 noundef 21, ptr noundef null)
  br i1 %32, label %33, label %37

33:                                               ; preds = %31, %29
  %34 = call i32 @errcode_for_file_access()
  %35 = load ptr, ptr %7, align 8
  %36 = call i32 (ptr, ...) @errmsg(ptr noundef @.str.20, ptr noundef %35)
  call void @errfinish(ptr noundef @.str.2, i32 noundef 1710, ptr noundef @__func__.SnapBuildRestoreSnapshot)
  br label %37

37:                                               ; preds = %33, %31, %29
  unreachable

38:                                               ; No predecessors!
  br label %39

39:                                               ; preds = %38
  br label %40

40:                                               ; preds = %39, %4
  %41 = load ptr, ptr %7, align 8
  call void @fsync_fname(ptr noundef %41, i1 noundef zeroext false)
  call void @fsync_fname(ptr noundef @.str.21, i1 noundef zeroext true)
  %42 = load i32, ptr %10, align 4
  %43 = load ptr, ptr %6, align 8
  %44 = load ptr, ptr %7, align 8
  call void @SnapBuildRestoreContents(i32 noundef %42, ptr noundef %43, i64 noundef 16, ptr noundef %44)
  %45 = load ptr, ptr %6, align 8
  %46 = getelementptr inbounds nuw %struct.SnapBuildOnDisk, ptr %45, i32 0, i32 0
  %47 = load i32, ptr %46, align 8
  %48 = icmp ne i32 %47, 1369563137
  br i1 %48, label %49, label %65

49:                                               ; preds = %40
  br label %50

50:                                               ; preds = %49
  br i1 true, label %51, label %53

51:                                               ; preds = %50
  %52 = call zeroext i1 @errstart_cold(i32 noundef 21, ptr noundef null) #10
  br i1 %52, label %55, label %62

53:                                               ; preds = %50
  %54 = call zeroext i1 @errstart(i32 noundef 21, ptr noundef null)
  br i1 %54, label %55, label %62

55:                                               ; preds = %53, %51
  %56 = call i32 @errcode(i32 noundef 16779816)
  %57 = load ptr, ptr %7, align 8
  %58 = load ptr, ptr %6, align 8
  %59 = getelementptr inbounds nuw %struct.SnapBuildOnDisk, ptr %58, i32 0, i32 0
  %60 = load i32, ptr %59, align 8
  %61 = call i32 (ptr, ...) @errmsg(ptr noundef @.str.22, ptr noundef %57, i32 noundef %60, i32 noundef 1369563137)
  call void @errfinish(ptr noundef @.str.2, i32 noundef 1731, ptr noundef @__func__.SnapBuildRestoreSnapshot)
  br label %62

62:                                               ; preds = %55, %53, %51
  unreachable

63:                                               ; No predecessors!
  br label %64

64:                                               ; preds = %63
  br label %65

65:                                               ; preds = %64, %40
  %66 = load ptr, ptr %6, align 8
  %67 = getelementptr inbounds nuw %struct.SnapBuildOnDisk, ptr %66, i32 0, i32 2
  %68 = load i32, ptr %67, align 8
  %69 = icmp ne i32 %68, 6
  br i1 %69, label %70, label %86

70:                                               ; preds = %65
  br label %71

71:                                               ; preds = %70
  br i1 true, label %72, label %74

72:                                               ; preds = %71
  %73 = call zeroext i1 @errstart_cold(i32 noundef 21, ptr noundef null) #10
  br i1 %73, label %76, label %83

74:                                               ; preds = %71
  %75 = call zeroext i1 @errstart(i32 noundef 21, ptr noundef null)
  br i1 %75, label %76, label %83

76:                                               ; preds = %74, %72
  %77 = call i32 @errcode(i32 noundef 16779816)
  %78 = load ptr, ptr %7, align 8
  %79 = load ptr, ptr %6, align 8
  %80 = getelementptr inbounds nuw %struct.SnapBuildOnDisk, ptr %79, i32 0, i32 2
  %81 = load i32, ptr %80, align 8
  %82 = call i32 (ptr, ...) @errmsg(ptr noundef @.str.23, ptr noundef %78, i32 noundef %81, i32 noundef 6)
  call void @errfinish(ptr noundef @.str.2, i32 noundef 1737, ptr noundef @__func__.SnapBuildRestoreSnapshot)
  br label %83

83:                                               ; preds = %76, %74, %72
  unreachable

84:                                               ; No predecessors!
  br label %85

85:                                               ; preds = %84
  br label %86

86:                                               ; preds = %85, %65
  store i32 -1, ptr %11, align 4
  %87 = load ptr, ptr @pg_comp_crc32c, align 8
  %88 = load i32, ptr %11, align 4
  %89 = load ptr, ptr %6, align 8
  %90 = getelementptr inbounds nuw i8, ptr %89, i64 8
  %91 = call i32 %87(i32 noundef %88, ptr noundef %90, i64 noundef 8)
  store i32 %91, ptr %11, align 4
  %92 = load i32, ptr %10, align 4
  %93 = load ptr, ptr %6, align 8
  %94 = getelementptr inbounds nuw %struct.SnapBuildOnDisk, ptr %93, i32 0, i32 4
  %95 = load ptr, ptr %7, align 8
  call void @SnapBuildRestoreContents(i32 noundef %92, ptr noundef %94, i64 noundef 128, ptr noundef %95)
  %96 = load ptr, ptr @pg_comp_crc32c, align 8
  %97 = load i32, ptr %11, align 4
  %98 = load ptr, ptr %6, align 8
  %99 = getelementptr inbounds nuw %struct.SnapBuildOnDisk, ptr %98, i32 0, i32 4
  %100 = call i32 %96(i32 noundef %97, ptr noundef %99, i64 noundef 128)
  store i32 %100, ptr %11, align 4
  %101 = load ptr, ptr %6, align 8
  %102 = getelementptr inbounds nuw %struct.SnapBuildOnDisk, ptr %101, i32 0, i32 4
  %103 = getelementptr inbounds nuw %struct.SnapBuild, ptr %102, i32 0, i32 13
  %104 = getelementptr inbounds nuw %struct.anon, ptr %103, i32 0, i32 0
  %105 = load i64, ptr %104, align 8
  %106 = icmp ugt i64 %105, 0
  br i1 %106, label %107, label %138

107:                                              ; preds = %86
  %108 = load ptr, ptr %6, align 8
  %109 = getelementptr inbounds nuw %struct.SnapBuildOnDisk, ptr %108, i32 0, i32 4
  %110 = getelementptr inbounds nuw %struct.SnapBuild, ptr %109, i32 0, i32 13
  %111 = getelementptr inbounds nuw %struct.anon, ptr %110, i32 0, i32 0
  %112 = load i64, ptr %111, align 8
  %113 = mul i64 4, %112
  store i64 %113, ptr %12, align 8
  %114 = load ptr, ptr %8, align 8
  %115 = load i64, ptr %12, align 8
  %116 = call ptr @MemoryContextAllocZero(ptr noundef %114, i64 noundef %115)
  %117 = load ptr, ptr %6, align 8
  %118 = getelementptr inbounds nuw %struct.SnapBuildOnDisk, ptr %117, i32 0, i32 4
  %119 = getelementptr inbounds nuw %struct.SnapBuild, ptr %118, i32 0, i32 13
  %120 = getelementptr inbounds nuw %struct.anon, ptr %119, i32 0, i32 3
  store ptr %116, ptr %120, align 8
  %121 = load i32, ptr %10, align 4
  %122 = load ptr, ptr %6, align 8
  %123 = getelementptr inbounds nuw %struct.SnapBuildOnDisk, ptr %122, i32 0, i32 4
  %124 = getelementptr inbounds nuw %struct.SnapBuild, ptr %123, i32 0, i32 13
  %125 = getelementptr inbounds nuw %struct.anon, ptr %124, i32 0, i32 3
  %126 = load ptr, ptr %125, align 8
  %127 = load i64, ptr %12, align 8
  %128 = load ptr, ptr %7, align 8
  call void @SnapBuildRestoreContents(i32 noundef %121, ptr noundef %126, i64 noundef %127, ptr noundef %128)
  %129 = load ptr, ptr @pg_comp_crc32c, align 8
  %130 = load i32, ptr %11, align 4
  %131 = load ptr, ptr %6, align 8
  %132 = getelementptr inbounds nuw %struct.SnapBuildOnDisk, ptr %131, i32 0, i32 4
  %133 = getelementptr inbounds nuw %struct.SnapBuild, ptr %132, i32 0, i32 13
  %134 = getelementptr inbounds nuw %struct.anon, ptr %133, i32 0, i32 3
  %135 = load ptr, ptr %134, align 8
  %136 = load i64, ptr %12, align 8
  %137 = call i32 %129(i32 noundef %130, ptr noundef %135, i64 noundef %136)
  store i32 %137, ptr %11, align 4
  br label %138

138:                                              ; preds = %107, %86
  %139 = load ptr, ptr %6, align 8
  %140 = getelementptr inbounds nuw %struct.SnapBuildOnDisk, ptr %139, i32 0, i32 4
  %141 = getelementptr inbounds nuw %struct.SnapBuild, ptr %140, i32 0, i32 14
  %142 = getelementptr inbounds nuw %struct.anon.0, ptr %141, i32 0, i32 0
  %143 = load i64, ptr %142, align 8
  %144 = icmp ugt i64 %143, 0
  br i1 %144, label %145, label %176

145:                                              ; preds = %138
  %146 = load ptr, ptr %6, align 8
  %147 = getelementptr inbounds nuw %struct.SnapBuildOnDisk, ptr %146, i32 0, i32 4
  %148 = getelementptr inbounds nuw %struct.SnapBuild, ptr %147, i32 0, i32 14
  %149 = getelementptr inbounds nuw %struct.anon.0, ptr %148, i32 0, i32 0
  %150 = load i64, ptr %149, align 8
  %151 = mul i64 4, %150
  store i64 %151, ptr %12, align 8
  %152 = load ptr, ptr %8, align 8
  %153 = load i64, ptr %12, align 8
  %154 = call ptr @MemoryContextAllocZero(ptr noundef %152, i64 noundef %153)
  %155 = load ptr, ptr %6, align 8
  %156 = getelementptr inbounds nuw %struct.SnapBuildOnDisk, ptr %155, i32 0, i32 4
  %157 = getelementptr inbounds nuw %struct.SnapBuild, ptr %156, i32 0, i32 14
  %158 = getelementptr inbounds nuw %struct.anon.0, ptr %157, i32 0, i32 1
  store ptr %154, ptr %158, align 8
  %159 = load i32, ptr %10, align 4
  %160 = load ptr, ptr %6, align 8
  %161 = getelementptr inbounds nuw %struct.SnapBuildOnDisk, ptr %160, i32 0, i32 4
  %162 = getelementptr inbounds nuw %struct.SnapBuild, ptr %161, i32 0, i32 14
  %163 = getelementptr inbounds nuw %struct.anon.0, ptr %162, i32 0, i32 1
  %164 = load ptr, ptr %163, align 8
  %165 = load i64, ptr %12, align 8
  %166 = load ptr, ptr %7, align 8
  call void @SnapBuildRestoreContents(i32 noundef %159, ptr noundef %164, i64 noundef %165, ptr noundef %166)
  %167 = load ptr, ptr @pg_comp_crc32c, align 8
  %168 = load i32, ptr %11, align 4
  %169 = load ptr, ptr %6, align 8
  %170 = getelementptr inbounds nuw %struct.SnapBuildOnDisk, ptr %169, i32 0, i32 4
  %171 = getelementptr inbounds nuw %struct.SnapBuild, ptr %170, i32 0, i32 14
  %172 = getelementptr inbounds nuw %struct.anon.0, ptr %171, i32 0, i32 1
  %173 = load ptr, ptr %172, align 8
  %174 = load i64, ptr %12, align 8
  %175 = call i32 %167(i32 noundef %168, ptr noundef %173, i64 noundef %174)
  store i32 %175, ptr %11, align 4
  br label %176

176:                                              ; preds = %145, %138
  %177 = load i32, ptr %10, align 4
  %178 = call i32 @CloseTransientFile(i32 noundef %177)
  %179 = icmp ne i32 %178, 0
  br i1 %179, label %180, label %193

180:                                              ; preds = %176
  br label %181

181:                                              ; preds = %180
  br i1 true, label %182, label %184

182:                                              ; preds = %181
  %183 = call zeroext i1 @errstart_cold(i32 noundef 21, ptr noundef null) #10
  br i1 %183, label %186, label %190

184:                                              ; preds = %181
  %185 = call zeroext i1 @errstart(i32 noundef 21, ptr noundef null)
  br i1 %185, label %186, label %190

186:                                              ; preds = %184, %182
  %187 = call i32 @errcode_for_file_access()
  %188 = load ptr, ptr %7, align 8
  %189 = call i32 (ptr, ...) @errmsg(ptr noundef @.str.24, ptr noundef %188)
  call void @errfinish(ptr noundef @.str.2, i32 noundef 1769, ptr noundef @__func__.SnapBuildRestoreSnapshot)
  br label %190

190:                                              ; preds = %186, %184, %182
  unreachable

191:                                              ; No predecessors!
  br label %192

192:                                              ; preds = %191
  br label %193

193:                                              ; preds = %192, %176
  %194 = load i32, ptr %11, align 4
  %195 = xor i32 %194, -1
  store i32 %195, ptr %11, align 4
  %196 = load i32, ptr %11, align 4
  %197 = load ptr, ptr %6, align 8
  %198 = getelementptr inbounds nuw %struct.SnapBuildOnDisk, ptr %197, i32 0, i32 1
  %199 = load i32, ptr %198, align 4
  %200 = icmp eq i32 %196, %199
  br i1 %200, label %218, label %201

201:                                              ; preds = %193
  br label %202

202:                                              ; preds = %201
  br i1 true, label %203, label %205

203:                                              ; preds = %202
  %204 = call zeroext i1 @errstart_cold(i32 noundef 21, ptr noundef null) #10
  br i1 %204, label %207, label %215

205:                                              ; preds = %202
  %206 = call zeroext i1 @errstart(i32 noundef 21, ptr noundef null)
  br i1 %206, label %207, label %215

207:                                              ; preds = %205, %203
  %208 = call i32 @errcode(i32 noundef 16779816)
  %209 = load ptr, ptr %7, align 8
  %210 = load i32, ptr %11, align 4
  %211 = load ptr, ptr %6, align 8
  %212 = getelementptr inbounds nuw %struct.SnapBuildOnDisk, ptr %211, i32 0, i32 1
  %213 = load i32, ptr %212, align 4
  %214 = call i32 (ptr, ...) @errmsg(ptr noundef @.str.25, ptr noundef %209, i32 noundef %210, i32 noundef %213)
  call void @errfinish(ptr noundef @.str.2, i32 noundef 1778, ptr noundef @__func__.SnapBuildRestoreSnapshot)
  br label %215

215:                                              ; preds = %207, %205, %203
  unreachable

216:                                              ; No predecessors!
  br label %217

217:                                              ; preds = %216
  br label %218

218:                                              ; preds = %217, %193
  store i1 true, ptr %5, align 1
  store i32 1, ptr %13, align 4
  br label %219

219:                                              ; preds = %218, %26
  call void @llvm.lifetime.end.p0(i64 8, ptr %12) #9
  call void @llvm.lifetime.end.p0(i64 4, ptr %11) #9
  call void @llvm.lifetime.end.p0(i64 4, ptr %10) #9
  %220 = load i1, ptr %5, align 1
  ret i1 %220
}