; Function Attrs: nounwind uwtable
define dso_local noundef zeroext i1 @SnapBuildRestoreSnapshot(ptr noundef %0, ptr noundef %1, ptr noundef %2, i1 noundef zeroext %3) local_unnamed_addr #0 {
  %5 = tail call i32 @OpenTransientFile(ptr noundef %1, i32 noundef 0) #14
  %6 = icmp sgt i32 %5, -1
  br i1 %6, label %16, label %7

7:                                                ; preds = %4
  br i1 %3, label %8, label %12

8:                                                ; preds = %7
  %9 = tail call ptr @__errno_location() #16
  %10 = load i32, ptr %9, align 4
  %11 = icmp eq i32 %10, 2
  br i1 %11, label %72, label %12

12:                                               ; preds = %8, %7
  %13 = tail call zeroext i1 @errstart_cold(i32 noundef 21, ptr noundef null) #15
  tail call void @llvm.assume(i1 %13)
  %14 = tail call i32 @errcode_for_file_access() #14
  %15 = tail call i32 (ptr, ...) @errmsg(ptr noundef nonnull @.str.20, ptr noundef %1) #14
  tail call void @errfinish(ptr noundef nonnull @.str.2, i32 noundef 1710, ptr noundef nonnull @__func__.SnapBuildRestoreSnapshot) #14
  unreachable

16:                                               ; preds = %4
  tail call void @fsync_fname(ptr noundef %1, i1 noundef zeroext false) #14
  tail call void @fsync_fname(ptr noundef nonnull @.str.21, i1 noundef zeroext true) #14
  tail call fastcc void @SnapBuildRestoreContents(i32 noundef %5, ptr noundef %0, i64 noundef 16, ptr noundef %1)
  %17 = load i32, ptr %0, align 8
  %.not = icmp eq i32 %17, 1369563137
  br i1 %.not, label %23, label %18

18:                                               ; preds = %16
  %19 = tail call zeroext i1 @errstart_cold(i32 noundef 21, ptr noundef null) #15
  tail call void @llvm.assume(i1 %19)
  %20 = tail call i32 @errcode(i32 noundef 16779816) #14
  %21 = load i32, ptr %0, align 8
  %22 = tail call i32 (ptr, ...) @errmsg(ptr noundef nonnull @.str.22, ptr noundef %1, i32 noundef %21, i32 noundef 1369563137) #14
  tail call void @errfinish(ptr noundef nonnull @.str.2, i32 noundef 1731, ptr noundef nonnull @__func__.SnapBuildRestoreSnapshot) #14
  unreachable

23:                                               ; preds = %16
  %24 = getelementptr inbounds nuw i8, ptr %0, i64 8
  %25 = load i32, ptr %24, align 8
  %.not58 = icmp eq i32 %25, 6
  br i1 %.not58, label %31, label %26

26:                                               ; preds = %23
  %27 = tail call zeroext i1 @errstart_cold(i32 noundef 21, ptr noundef null) #15
  tail call void @llvm.assume(i1 %27)
  %28 = tail call i32 @errcode(i32 noundef 16779816) #14
  %29 = load i32, ptr %24, align 8
  %30 = tail call i32 (ptr, ...) @errmsg(ptr noundef nonnull @.str.23, ptr noundef %1, i32 noundef %29, i32 noundef 6) #14
  tail call void @errfinish(ptr noundef nonnull @.str.2, i32 noundef 1737, ptr noundef nonnull @__func__.SnapBuildRestoreSnapshot) #14
  unreachable

31:                                               ; preds = %23
  %32 = load ptr, ptr @pg_comp_crc32c, align 8
  %33 = tail call i32 %32(i32 noundef -1, ptr noundef nonnull %24, i64 noundef 8) #14
  %34 = getelementptr inbounds nuw i8, ptr %0, i64 16
  tail call fastcc void @SnapBuildRestoreContents(i32 noundef %5, ptr noundef nonnull %34, i64 noundef 128, ptr noundef %1)
  %35 = load ptr, ptr @pg_comp_crc32c, align 8
  %36 = tail call i32 %35(i32 noundef %33, ptr noundef nonnull %34, i64 noundef 128) #14
  %37 = getelementptr inbounds nuw i8, ptr %0, i64 96
  %38 = load i64, ptr %37, align 8
  %.not59 = icmp eq i64 %38, 0
  br i1 %.not59, label %46, label %39

39:                                               ; preds = %31
  %40 = shl i64 %38, 2
  %41 = tail call ptr @MemoryContextAllocZero(ptr noundef %2, i64 noundef %40) #14
  %42 = getelementptr inbounds nuw i8, ptr %0, i64 120
  store ptr %41, ptr %42, align 8
  tail call fastcc void @SnapBuildRestoreContents(i32 noundef %5, ptr noundef %41, i64 noundef %40, ptr noundef %1)
  %43 = load ptr, ptr @pg_comp_crc32c, align 8
  %44 = load ptr, ptr %42, align 8
  %45 = tail call i32 %43(i32 noundef %36, ptr noundef %44, i64 noundef %40) #14
  br label %46

46:                                               ; preds = %39, %31
  %.0 = phi i32 [ %45, %39 ], [ %36, %31 ]
  %47 = getelementptr inbounds nuw i8, ptr %0, i64 128
  %48 = load i64, ptr %47, align 8
  %.not60 = icmp eq i64 %48, 0
  br i1 %.not60, label %56, label %49

49:                                               ; preds = %46
  %50 = shl i64 %48, 2
  %51 = tail call ptr @MemoryContextAllocZero(ptr noundef %2, i64 noundef %50) #14
  %52 = getelementptr inbounds nuw i8, ptr %0, i64 136
  store ptr %51, ptr %52, align 8
  tail call fastcc void @SnapBuildRestoreContents(i32 noundef %5, ptr noundef %51, i64 noundef %50, ptr noundef %1)
  %53 = load ptr, ptr @pg_comp_crc32c, align 8
  %54 = load ptr, ptr %52, align 8
  %55 = tail call i32 %53(i32 noundef %.0, ptr noundef %54, i64 noundef %50) #14
  br label %56

56:                                               ; preds = %49, %46
  %.1 = phi i32 [ %55, %49 ], [ %.0, %46 ]
  %57 = tail call i32 @CloseTransientFile(i32 noundef %5) #14
  %.not61 = icmp eq i32 %57, 0
  br i1 %.not61, label %62, label %58

58:                                               ; preds = %56
  %59 = tail call zeroext i1 @errstart_cold(i32 noundef 21, ptr noundef null) #15
  tail call void @llvm.assume(i1 %59)
  %60 = tail call i32 @errcode_for_file_access() #14
  %61 = tail call i32 (ptr, ...) @errmsg(ptr noundef nonnull @.str.24, ptr noundef %1) #14
  tail call void @errfinish(ptr noundef nonnull @.str.2, i32 noundef 1769, ptr noundef nonnull @__func__.SnapBuildRestoreSnapshot) #14
  unreachable

62:                                               ; preds = %56
  %63 = xor i32 %.1, -1
  %64 = getelementptr inbounds nuw i8, ptr %0, i64 4
  %65 = load i32, ptr %64, align 4
  %66 = icmp eq i32 %65, %63
  br i1 %66, label %72, label %67

67:                                               ; preds = %62
  %68 = tail call zeroext i1 @errstart_cold(i32 noundef 21, ptr noundef null) #15
  tail call void @llvm.assume(i1 %68)
  %69 = tail call i32 @errcode(i32 noundef 16779816) #14
  %70 = load i32, ptr %64, align 4
  %71 = tail call i32 (ptr, ...) @errmsg(ptr noundef nonnull @.str.25, ptr noundef %1, i32 noundef %63, i32 noundef %70) #14
  tail call void @errfinish(ptr noundef nonnull @.str.2, i32 noundef 1778, ptr noundef nonnull @__func__.SnapBuildRestoreSnapshot) #14
  unreachable

72:                                               ; preds = %62, %8
  ret i1 %6
}